; Function Attrs: cold nounwind optsize uwtable
define internal range(i32 -12, 1) i32 @fic_decode_init(ptr noundef %0) #0 {
  %2 = getelementptr inbounds nuw i8, ptr %0, i64 32
  %3 = load ptr, ptr %2, align 8, !tbaa !4
  %4 = getelementptr inbounds nuw i8, ptr %3, i64 8
  store ptr %0, ptr %4, align 8, !tbaa !27
  %5 = getelementptr inbounds nuw i8, ptr %0, i64 112
  %6 = load i32, ptr %5, align 8, !tbaa !32
  %7 = add nsw i32 %6, 15
  %8 = and i32 %7, -16
  %9 = getelementptr inbounds nuw i8, ptr %3, i64 60
  store i32 %8, ptr %9, align 4, !tbaa !33
  %10 = getelementptr inbounds nuw i8, ptr %0, i64 116
  %11 = load i32, ptr %10, align 4, !tbaa !34
  %12 = add nsw i32 %11, 15
  %13 = and i32 %12, -16
  %14 = getelementptr inbounds nuw i8, ptr %3, i64 64
  store i32 %13, ptr %14, align 8, !tbaa !35
  %15 = getelementptr inbounds nuw i8, ptr %0, i64 136
  store i32 0, ptr %15, align 8, !tbaa !36
  %16 = getelementptr inbounds nuw i8, ptr %0, i64 652
  store i32 8, ptr %16, align 4, !tbaa !37
  %17 = tail call ptr @av_frame_alloc() #9
  %18 = getelementptr inbounds nuw i8, ptr %3, i64 16
  store ptr %17, ptr %18, align 8, !tbaa !38
  %.not = icmp eq ptr %17, null
  %. = select i1 %.not, i32 -12, i32 0
  ret i32 %.
}